target datalayout = "e-m:e-p270:32:32-p271:32:32-p272:64:64-i64:64-i128:128-f80:128-n8:16:32:64-S128"
target triple = "x86_64-pc-linux-gnu"

%struct.PJconsts = type { ptr, ptr, ptr, ptr, ptr, ptr, ptr, ptr, ptr, ptr, ptr, ptr, i32, ptr, ptr, ptr, ptr, ptr, ptr, ptr, ptr, double, double, double, double, double, double, double, double, double, double, double, double, double, double, double, double, double, double, double, double, double, double, i32, i32, i32, i32, i32, i32, i32, i32, i32, i32, i32, ptr, ptr, ptr, ptr, ptr, ptr, double, double, double, double, double, double, double, double, double, double, double, i32, [7 x double], i32, ptr, ptr, double, double, i32, [4 x i8], %"class.std::shared_ptr", i8, double, i8, %"class.std::__cxx11::basic_string", %"class.std::__cxx11::basic_string", %"class.std::__cxx11::basic_string", i8, %"class.std::vector", i32, %"class.std::vector.3", i32, i8, i8, i8, ptr }
%"class.std::shared_ptr" = type { %"class.std::__shared_ptr" }
%"class.std::__shared_ptr" = type { ptr, %"class.std::__shared_count" }
%"class.std::__shared_count" = type { ptr }
%"class.std::__cxx11::basic_string" = type { %"struct.std::__cxx11::basic_string<char>::_Alloc_hider", i64, %union.anon }
%"struct.std::__cxx11::basic_string<char>::_Alloc_hider" = type { ptr }
%union.anon = type { i64, [8 x i8] }
%"class.std::vector" = type { %"struct.std::_Vector_base" }
%"struct.std::_Vector_base" = type { %"struct.std::_Vector_base<osgeo::proj::operation::GridDescription, std::allocator<osgeo::proj::operation::GridDescription>>::_Vector_impl" }
%"struct.std::_Vector_base<osgeo::proj::operation::GridDescription, std::allocator<osgeo::proj::operation::GridDescription>>::_Vector_impl" = type { %"struct.std::_Vector_base<osgeo::proj::operation::GridDescription, std::allocator<osgeo::proj::operation::GridDescription>>::_Vector_impl_data" }
%"struct.std::_Vector_base<osgeo::proj::operation::GridDescription, std::allocator<osgeo::proj::operation::GridDescription>>::_Vector_impl_data" = type { ptr, ptr, ptr }
%"class.std::vector.3" = type { %"struct.std::_Vector_base.4" }
%"struct.std::_Vector_base.4" = type { %"struct.std::_Vector_base<PJCoordOperation, std::allocator<PJCoordOperation>>::_Vector_impl" }
%"struct.std::_Vector_base<PJCoordOperation, std::allocator<PJCoordOperation>>::_Vector_impl" = type { %"struct.std::_Vector_base<PJCoordOperation, std::allocator<PJCoordOperation>>::_Vector_impl_data" }
%"struct.std::_Vector_base<PJCoordOperation, std::allocator<PJCoordOperation>>::_Vector_impl_data" = type { ptr, ptr, ptr }
%"struct.(anonymous namespace)::pj_bonne_data" = type { double, double, double, double, ptr }
%struct.PJ_LP = type { double, double }
%struct.PJ_XY = type { double, double }

; Function Attrs: mustprogress uwtable
define internal { double, double } @_ZL15bonne_s_inverse5PJ_XYP8PJconsts(double %0, double %1, ptr noundef %2) #0 {
  %4 = alloca %struct.PJ_LP, align 8
  %5 = alloca %struct.PJ_XY, align 8
  %6 = alloca ptr, align 8
  %7 = alloca ptr, align 8
  %8 = alloca double, align 8
  %9 = alloca double, align 8
  %10 = alloca i32, align 4
  %11 = alloca double, align 8
  %12 = getelementptr inbounds nuw { double, double }, ptr %5, i32 0, i32 0
  store double %0, ptr %12, align 8
  %13 = getelementptr inbounds nuw { double, double }, ptr %5, i32 0, i32 1
  store double %1, ptr %13, align 8
  store ptr %2, ptr %6, align 8, !tbaa !3
  call void @llvm.memset.p0.i64(ptr align 8 %4, i8 0, i64 16, i1 false)
  call void @llvm.lifetime.start.p0(i64 8, ptr %7) #8
  %14 = load ptr, ptr %6, align 8, !tbaa !3
  %15 = getelementptr inbounds nuw %struct.PJconsts, ptr %14, i32 0, i32 11
  %16 = load ptr, ptr %15, align 8, !tbaa !43
  store ptr %16, ptr %7, align 8, !tbaa !41
  %17 = load ptr, ptr %7, align 8, !tbaa !41
  %18 = getelementptr inbounds nuw %"struct.(anonymous namespace)::pj_bonne_data", ptr %17, i32 0, i32 1
  %19 = load double, ptr %18, align 8, !tbaa !60
  %20 = getelementptr inbounds nuw %struct.PJ_XY, ptr %5, i32 0, i32 1
  %21 = load double, ptr %20, align 8, !tbaa !61
  %22 = fsub double %19, %21
  %23 = getelementptr inbounds nuw %struct.PJ_XY, ptr %5, i32 0, i32 1
  store double %22, ptr %23, align 8, !tbaa !61
  call void @llvm.lifetime.start.p0(i64 8, ptr %8) #8
  %24 = getelementptr inbounds nuw %struct.PJ_XY, ptr %5, i32 0, i32 0
  %25 = load double, ptr %24, align 8, !tbaa !63
  %26 = getelementptr inbounds nuw %struct.PJ_XY, ptr %5, i32 0, i32 1
  %27 = load double, ptr %26, align 8, !tbaa !61
  %28 = call double @hypot(double noundef %25, double noundef %27) #8, !tbaa !54
  %29 = load ptr, ptr %7, align 8, !tbaa !41
  %30 = getelementptr inbounds nuw %"struct.(anonymous namespace)::pj_bonne_data", ptr %29, i32 0, i32 0
  %31 = load double, ptr %30, align 8, !tbaa !48
  %32 = call double @llvm.copysign.f64(double %28, double %31)
  store double %32, ptr %8, align 8, !tbaa !56
  %33 = load ptr, ptr %7, align 8, !tbaa !41
  %34 = getelementptr inbounds nuw %"struct.(anonymous namespace)::pj_bonne_data", ptr %33, i32 0, i32 1
  %35 = load double, ptr %34, align 8, !tbaa !60
  %36 = load ptr, ptr %7, align 8, !tbaa !41
  %37 = getelementptr inbounds nuw %"struct.(anonymous namespace)::pj_bonne_data", ptr %36, i32 0, i32 0
  %38 = load double, ptr %37, align 8, !tbaa !48
  %39 = fadd double %35, %38
  %40 = load double, ptr %8, align 8, !tbaa !56
  %41 = fsub double %39, %40
  %42 = getelementptr inbounds nuw %struct.PJ_LP, ptr %4, i32 0, i32 1
  store double %41, ptr %42, align 8, !tbaa !64
  call void @llvm.lifetime.start.p0(i64 8, ptr %9) #8
  %43 = getelementptr inbounds nuw %struct.PJ_LP, ptr %4, i32 0, i32 1
  %44 = load double, ptr %43, align 8, !tbaa !64
  %45 = call double @llvm.fabs.f64(double %44)
  store double %45, ptr %9, align 8, !tbaa !56
  %46 = load double, ptr %9, align 8, !tbaa !56
  %47 = fcmp ogt double %46, 0x3FF921FB54442D18
  br i1 %47, label %48, label %51

48:                                               ; preds = %3
  %49 = load ptr, ptr %6, align 8, !tbaa !3
  %50 = call i32 @proj_errno_set(ptr noundef %49, i32 noundef 2050)
  store i32 1, ptr %10, align 4
  br label %89

51:                                               ; preds = %3
  %52 = load double, ptr %9, align 8, !tbaa !56
  %53 = fsub double 0x3FF921FB54442D18, %52
  %54 = fcmp ole double %53, 1.000000e-10
  br i1 %54, label %55, label %57

55:                                               ; preds = %51
  %56 = getelementptr inbounds nuw %struct.PJ_LP, ptr %4, i32 0, i32 0
  store double 0.000000e+00, ptr %56, align 8, !tbaa !66
  br label %88

57:                                               ; preds = %51
  call void @llvm.lifetime.start.p0(i64 8, ptr %11) #8
  %58 = load double, ptr %8, align 8, !tbaa !56
  %59 = getelementptr inbounds nuw %struct.PJ_LP, ptr %4, i32 0, i32 1
  %60 = load double, ptr %59, align 8, !tbaa !64
  %61 = call double @cos(double noundef %60) #8, !tbaa !54
  %62 = fdiv double %58, %61
  store double %62, ptr %11, align 8, !tbaa !56
  %63 = load ptr, ptr %7, align 8, !tbaa !41
  %64 = getelementptr inbounds nuw %"struct.(anonymous namespace)::pj_bonne_data", ptr %63, i32 0, i32 0
  %65 = load double, ptr %64, align 8, !tbaa !48
  %66 = fcmp ogt double %65, 0.000000e+00
  br i1 %66, label %67, label %76

67:                                               ; preds = %57
  %68 = load double, ptr %11, align 8, !tbaa !56
  %69 = getelementptr inbounds nuw %struct.PJ_XY, ptr %5, i32 0, i32 0
  %70 = load double, ptr %69, align 8, !tbaa !63
  %71 = getelementptr inbounds nuw %struct.PJ_XY, ptr %5, i32 0, i32 1
  %72 = load double, ptr %71, align 8, !tbaa !61
  %73 = call double @atan2(double noundef %70, double noundef %72) #8, !tbaa !54
  %74 = fmul double %68, %73
  %75 = getelementptr inbounds nuw %struct.PJ_LP, ptr %4, i32 0, i32 0
  store double %74, ptr %75, align 8, !tbaa !66
  br label %87

76:                                               ; preds = %57
  %77 = load double, ptr %11, align 8, !tbaa !56
  %78 = getelementptr inbounds nuw %struct.PJ_XY, ptr %5, i32 0, i32 0
  %79 = load double, ptr %78, align 8, !tbaa !63
  %80 = fneg double %79
  %81 = getelementptr inbounds nuw %struct.PJ_XY, ptr %5, i32 0, i32 1
  %82 = load double, ptr %81, align 8, !tbaa !61
  %83 = fneg double %82
  %84 = call double @atan2(double noundef %80, double noundef %83) #8, !tbaa !54
  %85 = fmul double %77, %84
  %86 = getelementptr inbounds nuw %struct.PJ_LP, ptr %4, i32 0, i32 0
  store double %85, ptr %86, align 8, !tbaa !66
  br label %87

87:                                               ; preds = %76, %67
  call void @llvm.lifetime.end.p0(i64 8, ptr %11) #8
  br label %88

88:                                               ; preds = %87, %55
  store i32 1, ptr %10, align 4
  br label %89

89:                                               ; preds = %88, %48
  call void @llvm.lifetime.end.p0(i64 8, ptr %9) #8
  call void @llvm.lifetime.end.p0(i64 8, ptr %8) #8
  call void @llvm.lifetime.end.p0(i64 8, ptr %7) #8
  %90 = load { double, double }, ptr %4, align 8
  ret { double, double } %90
}