; Function Attrs: mustprogress uwtable
define internal { double, double } @_ZL15bonne_s_inverse5PJ_XYP8PJconsts(double %0, double %1, ptr noundef %2) #0 {
  %4 = getelementptr inbounds nuw i8, ptr %2, i64 88
  %5 = load ptr, ptr %4, align 8, !tbaa !40
  %6 = getelementptr inbounds nuw i8, ptr %5, i64 8
  %7 = load double, ptr %6, align 8, !tbaa !55
  %8 = fsub double %7, %1
  %9 = tail call double @hypot(double noundef %0, double noundef %8) #8, !tbaa !50
  %10 = load double, ptr %5, align 8, !tbaa !44
  %11 = tail call double @llvm.copysign.f64(double %9, double %10)
  %12 = fadd double %7, %10
  %13 = fsub double %12, %11
  %14 = tail call double @llvm.fabs.f64(double %13)
  %15 = fcmp ogt double %14, 0x3FF921FB54442D18
  br i1 %15, label %16, label %18

16:                                               ; preds = %3
  %17 = tail call i32 @proj_errno_set(ptr noundef nonnull %2, i32 noundef 2050)
  br label %32

18:                                               ; preds = %3
  %19 = fsub double 0x3FF921FB54442D18, %14
  %20 = fcmp ugt double %19, 1.000000e-10
  br i1 %20, label %21, label %32

21:                                               ; preds = %18
  %22 = tail call double @cos(double noundef %13) #8, !tbaa !50
  %23 = fdiv double %11, %22
  %24 = fcmp ogt double %10, 0.000000e+00
  br i1 %24, label %25, label %27

25:                                               ; preds = %21
  %26 = tail call double @atan2(double noundef %0, double noundef %8) #8, !tbaa !50
  br label %31

27:                                               ; preds = %21
  %28 = fneg double %0
  %29 = fneg double %8
  %30 = tail call double @atan2(double noundef %28, double noundef %29) #8, !tbaa !50
  br label %31

31:                                               ; preds = %27, %25
  %.pn = phi double [ %26, %25 ], [ %30, %27 ]
  %.sroa.018.2 = fmul double %23, %.pn
  br label %32

32:                                               ; preds = %31, %18, %16
  %.sroa.018.0 = phi double [ 0.000000e+00, %16 ], [ %.sroa.018.2, %31 ], [ 0.000000e+00, %18 ]
  %.fca.0.insert = insertvalue { double, double } poison, double %.sroa.018.0, 0
  %.fca.1.insert = insertvalue { double, double } %.fca.0.insert, double %13, 1
  ret { double, double } %.fca.1.insert
}